target datalayout = "e-m:e-p270:32:32-p271:32:32-p272:64:64-i64:64-i128:128-f80:128-n8:16:32:64-S128"
target triple = "x86_64-pc-linux-gnu"

%struct.asn1_string_st = type { i32, i32, ptr, i64 }

; Function Attrs: nounwind uwtable
define hidden i64 @ASN1_INTEGER_get(ptr noundef %0) #0 {
  %2 = alloca i64, align 8
  %3 = alloca ptr, align 8
  %4 = alloca i32, align 4
  %5 = alloca i32, align 4
  %6 = alloca i64, align 8
  %7 = alloca i32, align 4
  store ptr %0, ptr %3, align 8, !tbaa !6
  call void @llvm.lifetime.start.p0(i64 4, ptr %4) #8
  store i32 0, ptr %4, align 4, !tbaa !16
  call void @llvm.lifetime.start.p0(i64 4, ptr %5) #8
  call void @llvm.lifetime.start.p0(i64 8, ptr %6) #8
  store i64 0, ptr %6, align 8, !tbaa !29
  %8 = load ptr, ptr %3, align 8, !tbaa !6
  %9 = icmp eq ptr %8, null
  br i1 %9, label %10, label %11

10:                                               ; preds = %1
  store i64 0, ptr %2, align 8
  store i32 1, ptr %7, align 4
  br label %66

11:                                               ; preds = %1
  %12 = load ptr, ptr %3, align 8, !tbaa !6
  %13 = getelementptr inbounds nuw %struct.asn1_string_st, ptr %12, i32 0, i32 1
  %14 = load i32, ptr %13, align 4, !tbaa !11
  store i32 %14, ptr %5, align 4, !tbaa !16
  %15 = load i32, ptr %5, align 4, !tbaa !16
  %16 = icmp eq i32 %15, 258
  br i1 %16, label %17, label %18

17:                                               ; preds = %11
  store i32 1, ptr %4, align 4, !tbaa !16
  br label %23

18:                                               ; preds = %11
  %19 = load i32, ptr %5, align 4, !tbaa !16
  %20 = icmp ne i32 %19, 2
  br i1 %20, label %21, label %22

21:                                               ; preds = %18
  store i64 -1, ptr %2, align 8
  store i32 1, ptr %7, align 4
  br label %66

22:                                               ; preds = %18
  br label %23

23:                                               ; preds = %22, %17
  %24 = load ptr, ptr %3, align 8, !tbaa !6
  %25 = getelementptr inbounds nuw %struct.asn1_string_st, ptr %24, i32 0, i32 0
  %26 = load i32, ptr %25, align 8, !tbaa !20
  %27 = icmp sgt i32 %26, 8
  br i1 %27, label %28, label %29

28:                                               ; preds = %23
  store i64 -1, ptr %2, align 8
  store i32 1, ptr %7, align 4
  br label %66

29:                                               ; preds = %23
  %30 = load ptr, ptr %3, align 8, !tbaa !6
  %31 = getelementptr inbounds nuw %struct.asn1_string_st, ptr %30, i32 0, i32 2
  %32 = load ptr, ptr %31, align 8, !tbaa !21
  %33 = icmp eq ptr %32, null
  br i1 %33, label %34, label %35

34:                                               ; preds = %29
  store i64 0, ptr %2, align 8
  store i32 1, ptr %7, align 4
  br label %66

35:                                               ; preds = %29
  store i32 0, ptr %5, align 4, !tbaa !16
  br label %36

36:                                               ; preds = %55, %35
  %37 = load i32, ptr %5, align 4, !tbaa !16
  %38 = load ptr, ptr %3, align 8, !tbaa !6
  %39 = getelementptr inbounds nuw %struct.asn1_string_st, ptr %38, i32 0, i32 0
  %40 = load i32, ptr %39, align 8, !tbaa !20
  %41 = icmp slt i32 %37, %40
  br i1 %41, label %42, label %58

42:                                               ; preds = %36
  %43 = load i64, ptr %6, align 8, !tbaa !29
  %44 = shl i64 %43, 8
  store i64 %44, ptr %6, align 8, !tbaa !29
  %45 = load ptr, ptr %3, align 8, !tbaa !6
  %46 = getelementptr inbounds nuw %struct.asn1_string_st, ptr %45, i32 0, i32 2
  %47 = load ptr, ptr %46, align 8, !tbaa !21
  %48 = load i32, ptr %5, align 4, !tbaa !16
  %49 = sext i32 %48 to i64
  %50 = getelementptr inbounds i8, ptr %47, i64 %49
  %51 = load i8, ptr %50, align 1, !tbaa !19
  %52 = zext i8 %51 to i64
  %53 = load i64, ptr %6, align 8, !tbaa !29
  %54 = or i64 %53, %52
  store i64 %54, ptr %6, align 8, !tbaa !29
  br label %55

55:                                               ; preds = %42
  %56 = load i32, ptr %5, align 4, !tbaa !16
  %57 = add nsw i32 %56, 1
  store i32 %57, ptr %5, align 4, !tbaa !16
  br label %36, !llvm.loop !34

58:                                               ; preds = %36
  %59 = load i32, ptr %4, align 4, !tbaa !16
  %60 = icmp ne i32 %59, 0
  br i1 %60, label %61, label %64

61:                                               ; preds = %58
  %62 = load i64, ptr %6, align 8, !tbaa !29
  %63 = sub nsw i64 0, %62
  store i64 %63, ptr %6, align 8, !tbaa !29
  br label %64

64:                                               ; preds = %61, %58
  %65 = load i64, ptr %6, align 8, !tbaa !29
  store i64 %65, ptr %2, align 8
  store i32 1, ptr %7, align 4
  br label %66

66:                                               ; preds = %64, %34, %28, %21, %10
  call void @llvm.lifetime.end.p0(i64 8, ptr %6) #8
  call void @llvm.lifetime.end.p0(i64 4, ptr %5) #8
  call void @llvm.lifetime.end.p0(i64 4, ptr %4) #8
  %67 = load i64, ptr %2, align 8
  ret i64 %67
}