; Function Attrs: nofree norecurse nosync nounwind memory(read, inaccessiblemem: none) uwtable
define hidden i64 @ASN1_INTEGER_get(ptr noundef readonly captures(address_is_null) %0) local_unnamed_addr #7 {
  %2 = icmp eq ptr %0, null
  br i1 %2, label %20, label %3

3:                                                ; preds = %1
  %4 = getelementptr inbounds nuw i8, ptr %0, i64 4
  %5 = load i32, ptr %4, align 4, !tbaa !6
  %.not22 = icmp eq i32 %5, 258
  switch i32 %5, label %20 [
    i32 258, label %6
    i32 2, label %6
  ]

6:                                                ; preds = %3, %3
  %7 = load i32, ptr %0, align 8, !tbaa !14
  %8 = icmp sgt i32 %7, 8
  br i1 %8, label %20, label %9

9:                                                ; preds = %6
  %10 = getelementptr inbounds nuw i8, ptr %0, i64 8
  %11 = load ptr, ptr %10, align 8, !tbaa !15
  %12 = icmp eq ptr %11, null
  br i1 %12, label %20, label %.preheader

.preheader:                                       ; preds = %9
  %13 = icmp sgt i32 %7, 0
  br i1 %13, label %.lr.ph.preheader, label %._crit_edge

.lr.ph.preheader:                                 ; preds = %.preheader
  %wide.trip.count = zext nneg i32 %7 to i64
  br label %.lr.ph

.lr.ph:                                           ; preds = %.lr.ph.preheader, %.lr.ph
  %indvars.iv = phi i64 [ 0, %.lr.ph.preheader ], [ %indvars.iv.next, %.lr.ph ]
  %.024 = phi i64 [ 0, %.lr.ph.preheader ], [ %18, %.lr.ph ]
  %14 = shl i64 %.024, 8
  %15 = getelementptr inbounds nuw i8, ptr %11, i64 %indvars.iv
  %16 = load i8, ptr %15, align 1, !tbaa !16
  %17 = zext i8 %16 to i64
  %18 = or disjoint i64 %14, %17
  %indvars.iv.next = add nuw nsw i64 %indvars.iv, 1
  %exitcond.not = icmp eq i64 %indvars.iv.next, %wide.trip.count
  br i1 %exitcond.not, label %._crit_edge, label %.lr.ph, !llvm.loop !30

._crit_edge:                                      ; preds = %.lr.ph, %.preheader
  %.0.lcssa = phi i64 [ 0, %.preheader ], [ %18, %.lr.ph ]
  %19 = sub nsw i64 0, %.0.lcssa
  %spec.select = select i1 %.not22, i64 %19, i64 %.0.lcssa
  br label %20

20:                                               ; preds = %3, %9, %6, %1, %._crit_edge
  %.018 = phi i64 [ %spec.select, %._crit_edge ], [ 0, %1 ], [ -1, %3 ], [ -1, %6 ], [ 0, %9 ]
  ret i64 %.018
}